; Function Attrs: null_pointer_is_valid sspstrong uwtable
define internal i32 @srvsvc_dissect_element_NetGetFileSecurity_sd_buf_(ptr noundef %0, i32 noundef %1, ptr noundef %2, ptr noundef %3, ptr noundef %4, ptr noundef %5) #0 {
  %7 = alloca i32, align 4
  call void @llvm.lifetime.start.p0(i64 4, ptr nonnull %7) #4
  %8 = getelementptr inbounds nuw i8, ptr %4, i64 25
  %9 = load i8, ptr %8, align 1, !range !6, !noundef !7
  %10 = trunc nuw i8 %9 to i1
  br i1 %10, label %srvsvc_dissect_sec_desc_buf.exit, label %11

11:                                               ; preds = %6
  %12 = load i32, ptr @hf_srvsvc_sec_desc_buf_len, align 4
  %13 = call i32 @dissect_ndr_uint32(ptr noundef %0, i32 noundef %1, ptr noundef %2, ptr noundef %3, ptr noundef %4, ptr noundef %5, i32 noundef %12, ptr noundef nonnull %7)
  %14 = load i32, ptr %7, align 4
  %15 = call i32 @dissect_nt_sec_desc(ptr noundef %0, i32 noundef %13, ptr noundef %2, ptr noundef %3, ptr noundef %5, i1 noundef zeroext true, i32 noundef %14, ptr noundef null)
  %16 = load i32, ptr %7, align 4
  %17 = add i32 %16, %13
  br label %srvsvc_dissect_sec_desc_buf.exit

srvsvc_dissect_sec_desc_buf.exit:                 ; preds = %6, %11
  %.0.i = phi i32 [ %17, %11 ], [ %1, %6 ]
  call void @llvm.lifetime.end.p0(i64 4, ptr nonnull %7) #4
  ret i32 %.0.i
}